; Function Attrs: nofree nounwind uwtable
define void @Intp_ManProofWriteOne(ptr noundef captures(none) %0, ptr noundef readonly captures(none) %1) local_unnamed_addr #6 {
  %3 = getelementptr inbounds nuw i8, ptr %0, i64 92
  %4 = load i32, ptr %3, align 4
  %5 = add nsw i32 %4, 1
  store i32 %5, ptr %3, align 4
  %6 = getelementptr i8, ptr %0, i64 96
  %.val14 = load ptr, ptr %6, align 8
  %7 = getelementptr i8, ptr %1, i64 24
  %.val15 = load i32, ptr %7, align 8
  %8 = sext i32 %.val15 to i64
  %9 = getelementptr inbounds i32, ptr %.val14, i64 %8
  store i32 %5, ptr %9, align 4
  %10 = getelementptr inbounds nuw i8, ptr %0, i64 16
  %11 = load i32, ptr %10, align 8
  %.not = icmp eq i32 %11, 0
  br i1 %.not, label %40, label %12

12:                                               ; preds = %2
  %13 = getelementptr inbounds nuw i8, ptr %0, i64 104
  %14 = load ptr, ptr %13, align 8
  %.val = load ptr, ptr %6, align 8
  %.val13 = load i32, ptr %7, align 8
  %15 = sext i32 %.val13 to i64
  %16 = getelementptr inbounds i32, ptr %.val, i64 %15
  %17 = load i32, ptr %16, align 4
  %18 = tail call i32 (ptr, ptr, ...) @fprintf(ptr noundef %14, ptr noundef nonnull @.str.6, i32 noundef %17) #16
  %19 = getelementptr inbounds nuw i8, ptr %1, i64 28
  %20 = load i32, ptr %19, align 4
  %21 = and i32 %20, 134217720
  %.not17 = icmp eq i32 %21, 0
  br i1 %.not17, label %._crit_edge, label %.lr.ph

.lr.ph:                                           ; preds = %12
  %22 = getelementptr inbounds nuw i8, ptr %1, i64 32
  br label %23

23:                                               ; preds = %.lr.ph, %23
  %indvars.iv = phi i64 [ 0, %.lr.ph ], [ %indvars.iv.next, %23 ]
  %24 = load ptr, ptr %13, align 8
  %25 = getelementptr inbounds nuw [0 x i32], ptr %22, i64 0, i64 %indvars.iv
  %26 = load i32, ptr %25, align 4
  %27 = and i32 %26, 1
  %.not.i = icmp eq i32 %27, 0
  %28 = ashr i32 %26, 1
  %29 = xor i32 %28, -1
  %30 = add nsw i32 %28, 1
  %31 = select i1 %.not.i, i32 %30, i32 %29
  %32 = tail call i32 (ptr, ptr, ...) @fprintf(ptr noundef %24, ptr noundef nonnull @.str.1, i32 noundef %31) #16
  %indvars.iv.next = add nuw nsw i64 %indvars.iv, 1
  %33 = load i32, ptr %19, align 4
  %34 = lshr i32 %33, 3
  %35 = and i32 %34, 16777215
  %36 = zext nneg i32 %35 to i64
  %37 = icmp samesign ult i64 %indvars.iv.next, %36
  br i1 %37, label %23, label %._crit_edge, !llvm.loop !13

._crit_edge:                                      ; preds = %23, %12
  %38 = load ptr, ptr %13, align 8
  %39 = tail call i64 @fwrite(ptr nonnull @.str.7, i64 5, i64 1, ptr %38)
  br label %40

40:                                               ; preds = %._crit_edge, %2
  ret void
}